; Function Attrs: mustprogress nounwind uwtable
define dso_local void @_ZN4llvm18ilist_alloc_traitsINS_17MachineBasicBlockEE10deleteNodeEPS1_(ptr noundef nonnull readnone align 1 captures(none) dereferenceable(1) %0, ptr noundef %1) local_unnamed_addr #0 align 2 {
  %3 = getelementptr inbounds nuw i8, ptr %1, i64 32
  %4 = load ptr, ptr %3, align 8
  %5 = getelementptr inbounds nuw i8, ptr %4, i64 64
  %6 = load ptr, ptr %5, align 8
  %.not.i = icmp eq ptr %6, null
  br i1 %.not.i, label %_ZN4llvm15MachineFunction23deleteMachineBasicBlockEPNS_17MachineBasicBlockE.exit, label %7

7:                                                ; preds = %2
  %8 = tail call noundef zeroext i1 @_ZN4llvm20MachineJumpTableInfo23RemoveMBBFromJumpTablesEPNS_17MachineBasicBlockE(ptr noundef nonnull align 8 dereferenceable(32) %6, ptr noundef nonnull %1)
  br label %_ZN4llvm15MachineFunction23deleteMachineBasicBlockEPNS_17MachineBasicBlockE.exit

_ZN4llvm15MachineFunction23deleteMachineBasicBlockEPNS_17MachineBasicBlockE.exit: ; preds = %2, %7
  tail call void @_ZN4llvm17MachineBasicBlockD1Ev(ptr noundef nonnull align 8 dereferenceable(288) %1) #25
  %9 = getelementptr inbounds nuw i8, ptr %4, i64 312
  %10 = load ptr, ptr %9, align 8
  store ptr %10, ptr %1, align 8
  store ptr %1, ptr %9, align 8
  ret void
}